; Function Attrs: mustprogress nofree norecurse nosync nounwind willreturn memory(argmem: read) uwtable
define noundef zeroext i1 @_ZNK6icu_758numparse4impl12ParsedNumber7successEv(ptr nocapture noundef nonnull readonly align 8 dereferenceable(216) %this) local_unnamed_addr #3 align 2 {
entry:
  %charEnd = getelementptr inbounds i8, ptr %this, i64 72
  %0 = load i32, ptr %charEnd, align 8
  %cmp = icmp sgt i32 %0, 0
  %flags = getelementptr inbounds i8, ptr %this, i64 76
  %1 = load i32, ptr %flags, align 4
  %and = and i32 %1, 256
  %cmp2 = icmp eq i32 %and, 0
  %2 = select i1 %cmp, i1 %cmp2, i1 false
  ret i1 %2
}